; Function Attrs: mustprogress nofree norecurse nosync nounwind memory(readwrite, inaccessiblemem: none) uwtable
define hidden void @_ZN5o3dgc16Arithmetic_Codec8put_bitsEjj(ptr noundef nonnull align 8 captures(none) dereferenceable(44) %0, i32 noundef %1, i32 noundef %2) local_unnamed_addr #0 align 2 {
  %4 = getelementptr inbounds nuw i8, ptr %0, i64 24
  %5 = load i32, ptr %4, align 8
  %6 = getelementptr inbounds nuw i8, ptr %0, i64 32
  %7 = load i32, ptr %6, align 8
  %8 = lshr i32 %7, %2
  store i32 %8, ptr %6, align 8
  %9 = mul i32 %8, %1
  %10 = add i32 %9, %5
  store i32 %10, ptr %4, align 8
  %11 = icmp ugt i32 %5, %10
  br i1 %11, label %12, label %20

12:                                               ; preds = %3
  %13 = getelementptr inbounds nuw i8, ptr %0, i64 16
  %14 = load ptr, ptr %13, align 8
  %.05.i = getelementptr inbounds i8, ptr %14, i64 -1
  %15 = load i8, ptr %.05.i, align 1
  %16 = icmp eq i8 %15, -1
  br i1 %16, label %.lr.ph.i, label %_ZN5o3dgc16Arithmetic_Codec15propagate_carryEv.exit

.lr.ph.i:                                         ; preds = %12, %.lr.ph.i
  %.06.i = phi ptr [ %.0.i, %.lr.ph.i ], [ %.05.i, %12 ]
  store i8 0, ptr %.06.i, align 1
  %.0.i = getelementptr inbounds i8, ptr %.06.i, i64 -1
  %17 = load i8, ptr %.0.i, align 1
  %18 = icmp eq i8 %17, -1
  br i1 %18, label %.lr.ph.i, label %_ZN5o3dgc16Arithmetic_Codec15propagate_carryEv.exit, !llvm.loop !3

_ZN5o3dgc16Arithmetic_Codec15propagate_carryEv.exit: ; preds = %.lr.ph.i, %12
  %.0.lcssa.i = phi ptr [ %.05.i, %12 ], [ %.0.i, %.lr.ph.i ]
  %.lcssa.i = phi i8 [ %15, %12 ], [ %17, %.lr.ph.i ]
  %19 = add nuw i8 %.lcssa.i, 1
  store i8 %19, ptr %.0.lcssa.i, align 1
  %.pr = load i32, ptr %6, align 8
  br label %20

20:                                               ; preds = %_ZN5o3dgc16Arithmetic_Codec15propagate_carryEv.exit, %3
  %21 = phi i32 [ %.pr, %_ZN5o3dgc16Arithmetic_Codec15propagate_carryEv.exit ], [ %8, %3 ]
  %22 = icmp ult i32 %21, 16777216
  br i1 %22, label %23, label %_ZN5o3dgc16Arithmetic_Codec19renorm_enc_intervalEv.exit

23:                                               ; preds = %20
  %24 = getelementptr inbounds nuw i8, ptr %0, i64 16
  %.pre.i = load i32, ptr %4, align 8
  br label %25

25:                                               ; preds = %25, %23
  %26 = phi i32 [ %32, %25 ], [ %.pre.i, %23 ]
  %27 = lshr i32 %26, 24
  %28 = trunc nuw i32 %27 to i8
  %29 = load ptr, ptr %24, align 8
  %30 = getelementptr inbounds nuw i8, ptr %29, i64 1
  store ptr %30, ptr %24, align 8
  store i8 %28, ptr %29, align 1
  %31 = load i32, ptr %4, align 8
  %32 = shl i32 %31, 8
  store i32 %32, ptr %4, align 8
  %33 = load i32, ptr %6, align 8
  %34 = shl i32 %33, 8
  store i32 %34, ptr %6, align 8
  %35 = icmp ult i32 %34, 16777216
  br i1 %35, label %25, label %_ZN5o3dgc16Arithmetic_Codec19renorm_enc_intervalEv.exit, !llvm.loop !5

_ZN5o3dgc16Arithmetic_Codec19renorm_enc_intervalEv.exit: ; preds = %25, %20
  ret void
}